ccopy_reg
_reconstructor
p0
(csklearn.linear_model.logistic
LogisticRegression
p1
c__builtin__
object
p2
Ntp3
Rp4
(dp5
S'warm_start'
p6
I00
sS'C'
p7
F1.0
sS'n_jobs'
p8
NsS'verbose'
p9
I0
sS'fit_intercept'
p10
I01
sS'solver'
p11
S'warn'
p12
sS'classes_'
p13
cnumpy.core.multiarray
_reconstruct
p14
(cnumpy
ndarray
p15
(I0
tp16
S'b'
p17
tp18
Rp19
(I1
(I2
tp20
cnumpy
dtype
p21
(S'i8'
p22
I0
I1
tp23
Rp24
(I3
S'<'
p25
NNNI-1
I-1
I0
tp26
bI00
S'\x00\x00\x00\x00\x00\x00\x00\x00\x01\x00\x00\x00\x00\x00\x00\x00'
p27
tp28
bsS'n_iter_'
p29
g14
(g15
(I0
tp30
g17
tp31
Rp32
(I1
(I1
tp33
g21
(S'i4'
p34
I0
I1
tp35
Rp36
(I3
S'<'
p37
NNNI-1
I-1
I0
tp38
bI00
S'\x04\x00\x00\x00'
p39
tp40
bsS'intercept_scaling'
p41
I1
sS'penalty'
p42
S'l2'
p43
sS'multi_class'
p44
g12
sS'random_state'
p45
NsS'_sklearn_version'
p46
S'0.20.3'
p47
sS'dual'
p48
I00
sS'tol'
p49
F0.0001
sS'coef_'
p50
g14
(g15
(I0
tp51
g17
tp52
Rp53
(I1
(I1
I3
tp54
g21
(S'f8'
p55
I0
I1
tp56
Rp57
(I3
S'<'
p58
NNNI-1
I-1
I0
tp59
bI00
S'KK\xc4WC\xc3\xec?Be\xee\xbb\xdaU\xef?\xe0\xa24\xf9\x95\xcc\xf8\xbf'
p60
tp61
bsS'intercept_'
p62
g14
(g15
(I0
tp63
g17
tp64
Rp65
(I1
(I1
tp66
g57
I00
S'\x90\x9a\xc3\x12\xea\x11\xf4\xbf'
p67
tp68
bsS'max_iter'
p69
I100
sS'class_weight'
p70
Nsb.